; Function Attrs: null_pointer_is_valid sspstrong uwtable
define internal fastcc void @dissect_tlv_lspid(ptr noundef %0, ptr noundef %1, i32 noundef %2, ptr noundef %3, i32 noundef range(i32 0, 2147483644) %4) unnamed_addr #0 {
  %.not = icmp eq i32 %4, 8
  br i1 %.not, label %8, label %6

6:                                                ; preds = %5
  %7 = tail call ptr (ptr, ptr, ptr, ptr, i32, i32, ptr, ...) @proto_tree_add_expert_format(ptr noundef %3, ptr noundef %1, ptr noundef nonnull @ei_ldp_tlv_fec_len, ptr noundef %0, i32 noundef %2, i32 noundef %4, ptr noundef nonnull @.str.1072, i32 noundef %4)
  br label %19

8:                                                ; preds = %5
  %9 = load i32, ptr @ett_ldp_tlv_val, align 4
  %10 = tail call ptr @proto_tree_add_subtree(ptr noundef %3, ptr noundef %0, i32 noundef %2, i32 noundef 8, i32 noundef %9, ptr noundef null, ptr noundef nonnull @.str.1073)
  %11 = load i32, ptr @hf_ldp_tlv_lspid_act_flg, align 4
  %12 = tail call ptr @proto_tree_add_item(ptr noundef %10, i32 noundef %11, ptr noundef %0, i32 noundef %2, i32 noundef 2, i32 noundef 0)
  %13 = add i32 %2, 2
  %14 = load i32, ptr @hf_ldp_tlv_lspid_cr_lsp, align 4
  %15 = tail call ptr @proto_tree_add_item(ptr noundef %10, i32 noundef %14, ptr noundef %0, i32 noundef %13, i32 noundef 2, i32 noundef 0)
  %16 = add i32 %2, 4
  %17 = load i32, ptr @hf_ldp_tlv_lspid_ldpid, align 4
  %18 = tail call ptr @proto_tree_add_item(ptr noundef %10, i32 noundef %17, ptr noundef %0, i32 noundef %16, i32 noundef 4, i32 noundef 0)
  br label %19

19:                                               ; preds = %8, %6
  ret void
}